target datalayout = "e-m:e-p270:32:32-p271:32:32-p272:64:64-i64:64-i128:128-f80:128-n8:16:32:64-S128"
target triple = "x86_64-pc-linux-gnu"

%class.QToolBar = type { %class.QWidget }
%class.QWidget = type { %class.QObject, %class.QPaintDevice, ptr }
%class.QObject = type { ptr, %class.QScopedPointer }
%class.QScopedPointer = type { ptr }
%class.QPaintDevice = type { ptr, i16, ptr }
%class.MLRenderingParametersFrame = type <{ %class.QFrame, i32, [4 x i8] }>
%class.QFrame = type { %class.QWidget }
%class.MLRenderingSolidParametersFrame = type { %class.MLRenderingParametersFrame.base, ptr, ptr, ptr, ptr, ptr, ptr, ptr, ptr }
%class.MLRenderingParametersFrame.base = type <{ %class.QFrame, i32 }>
%class.MLRenderingOnOffToolbar = type { %class.QToolBar, i32, ptr, ptr, ptr }
%"struct.vcg::GLMeshAttributesInfo::ATT_NAMES" = type { i32 }

; Function Attrs: mustprogress uwtable
define void @_ZN23MLRenderingOnOffToolbar18setRenderingActionEP17MLRenderingAction(ptr noundef nonnull align 8 dereferenceable(80) %0, ptr noundef %1) #5 align 2 {
  %3 = alloca ptr, align 8
  %4 = alloca ptr, align 8
  store ptr %0, ptr %3, align 8
  store ptr %1, ptr %4, align 8
  %5 = load ptr, ptr %3, align 8
  %6 = load ptr, ptr %4, align 8
  %7 = getelementptr inbounds %class.MLRenderingOnOffToolbar, ptr %5, i32 0, i32 2
  store ptr %6, ptr %7, align 8
  %8 = getelementptr inbounds %class.MLRenderingOnOffToolbar, ptr %5, i32 0, i32 2
  %9 = load ptr, ptr %8, align 8
  call void @_ZN7QAction10setVisibleEb(ptr noundef nonnull align 8 dereferenceable(16) %9, i1 noundef zeroext false)
  %10 = getelementptr inbounds %class.MLRenderingOnOffToolbar, ptr %5, i32 0, i32 2
  %11 = load ptr, ptr %10, align 8
  call void @_ZN7QAction12setCheckableEb(ptr noundef nonnull align 8 dereferenceable(16) %11, i1 noundef zeroext true)
  ret void
}

; Function Attrs: mustprogress nounwind uwtable
define linkonce_odr noundef zeroext i1 @_ZNK3vcg20GLMeshAttributesInfo9ATT_NAMESeqEj(ptr noundef nonnull align 4 dereferenceable(4) %0, i32 noundef %1) #4 comdat align 2 {
  %3 = alloca ptr, align 8
  %4 = alloca i32, align 4
  store ptr %0, ptr %3, align 8
  store i32 %1, ptr %4, align 4
  %5 = load ptr, ptr %3, align 8
  %6 = getelementptr inbounds %"struct.vcg::GLMeshAttributesInfo::ATT_NAMES", ptr %5, i32 0, i32 0
  %7 = load i32, ptr %6, align 4
  %8 = load i32, ptr %4, align 4
  %9 = icmp eq i32 %7, %8
  ret i1 %9
}

; Function Attrs: mustprogress uwtable
define void @_ZN31MLRenderingSolidParametersFrame16setTextureActionEN3vcg20GLMeshAttributesInfo9ATT_NAMESE(ptr noundef nonnull align 8 dereferenceable(120) %0, i32 %1) unnamed_addr #5 align 2 personality ptr @__gxx_personality_v0 {
  %3 = alloca %"struct.vcg::GLMeshAttributesInfo::ATT_NAMES", align 4
  %4 = alloca ptr, align 8
  %5 = alloca ptr, align 8
  %6 = alloca ptr, align 8
  %7 = alloca i32, align 4
  %8 = alloca ptr, align 8
  %9 = getelementptr inbounds %"struct.vcg::GLMeshAttributesInfo::ATT_NAMES", ptr %3, i32 0, i32 0
  store i32 %1, ptr %9, align 4
  store ptr %0, ptr %4, align 8
  %10 = load ptr, ptr %4, align 8
  %11 = call noundef zeroext i1 @_ZNK3vcg20GLMeshAttributesInfo9ATT_NAMESeqEj(ptr noundef nonnull align 4 dereferenceable(4) %3, i32 noundef 6)
  br i1 %11, label %12, label %24

12:                                               ; preds = %2
  %13 = call noalias noundef nonnull ptr @_Znwm(i64 noundef 16) #15
  %14 = getelementptr inbounds %class.MLRenderingParametersFrame, ptr %10, i32 0, i32 1
  %15 = load i32, ptr %14, align 8
  invoke void @_ZN34MLRenderingPerWedgeTextCoordActionC1EiP7QObject(ptr noundef nonnull align 8 dereferenceable(16) %13, i32 noundef %15, ptr noundef %10)
          to label %16 unwind label %20

16:                                               ; preds = %12
  store ptr %13, ptr %5, align 8
  %17 = getelementptr inbounds %class.MLRenderingSolidParametersFrame, ptr %10, i32 0, i32 8
  %18 = load ptr, ptr %17, align 8
  %19 = load ptr, ptr %5, align 8
  call void @_ZN23MLRenderingOnOffToolbar18setRenderingActionEP17MLRenderingAction(ptr noundef nonnull align 8 dereferenceable(80) %18, ptr noundef %19)
  br label %37

20:                                               ; preds = %12
  %21 = landingpad { ptr, i32 }
          cleanup
  %22 = extractvalue { ptr, i32 } %21, 0
  store ptr %22, ptr %6, align 8
  %23 = extractvalue { ptr, i32 } %21, 1
  store i32 %23, ptr %7, align 4
  call void @_ZdlPv(ptr noundef %13) #16
  br label %38

24:                                               ; preds = %2
  %25 = call noundef zeroext i1 @_ZNK3vcg20GLMeshAttributesInfo9ATT_NAMESeqEj(ptr noundef nonnull align 4 dereferenceable(4) %3, i32 noundef 5)
  br i1 %25, label %26, label %36

26:                                               ; preds = %24
  %27 = call noalias noundef nonnull ptr @_Znwm(i64 noundef 24) #15
  invoke void @_ZN33MLRenderingPerVertTextCoordActionC1EN3vcg20GLMeshAttributesInfo18PRIMITIVE_MODALITYEP7QObject(ptr noundef nonnull align 8 dereferenceable(20) %27, i32 noundef 3, ptr noundef %10)
          to label %28 unwind label %32

28:                                               ; preds = %26
  store ptr %27, ptr %8, align 8
  %29 = getelementptr inbounds %class.MLRenderingSolidParametersFrame, ptr %10, i32 0, i32 8
  %30 = load ptr, ptr %29, align 8
  %31 = load ptr, ptr %8, align 8
  call void @_ZN23MLRenderingOnOffToolbar18setRenderingActionEP17MLRenderingAction(ptr noundef nonnull align 8 dereferenceable(80) %30, ptr noundef %31)
  br label %36

32:                                               ; preds = %26
  %33 = landingpad { ptr, i32 }
          cleanup
  %34 = extractvalue { ptr, i32 } %33, 0
  store ptr %34, ptr %6, align 8
  %35 = extractvalue { ptr, i32 } %33, 1
  store i32 %35, ptr %7, align 4
  call void @_ZdlPv(ptr noundef %27) #16
  br label %38

36:                                               ; preds = %28, %24
  br label %37

37:                                               ; preds = %36, %16
  ret void

38:                                               ; preds = %32, %20
  %39 = load ptr, ptr %6, align 8
  %40 = load i32, ptr %7, align 4
  %41 = insertvalue { ptr, i32 } poison, ptr %39, 0
  %42 = insertvalue { ptr, i32 } %41, i32 %40, 1
  resume { ptr, i32 } %42
}